(lp0
(F31.126492908188936
F-0.22563864167184433
tp1
a(F1.9982422258365062
F-0.9269458886693788
tp2
a(F0.43836135987808555
F18.948066416738023
tp3
a(F0.8939158012614321
F6.130882794110455
tp4
a(F0.4103914901286334
F6.51728062209774
tp5
a(F0.14693943454770997
F10.59596378513485
tp6
a(F0.1886913287878611
F9.481307217769473
tp7
a(F0.40785262800611033
F5.516799533675411
tp8
a(F0.08445475395919577
F6.407143493445469
tp9
a(F0.17283602935826647
F5.409376602636514
tp10
a(F0.04415992728408846
F8.042251359752179
tp11
a(F62.67356123840662
F-9.565808976786178
tp12
a(F6.562886320392295
F9.331690686667553
tp13
a(F0.8244505813205595
F-0.17134652877057222
tp14
a(F0.01812357632980585
F10.093600964253516
tp15
a.