(dp0
Vprotagoniust,
p1
(lp2
F0.05801105499267578
aF0.13407492637634277
aF0.06994915008544922
aF0.11618399620056152
aF0.15876483917236328
aF0.09304594993591309
aF0.07898306846618652
aF0.10006999969482422
aF0.009007930755615234
aF0.09009313583374023
aF0.07879805564880371
aF0.27344679832458496
asVand
p3
(lp4
F0.08119916915893555
aF0.06781888008117676
asVstrongly
p5
(lp6
F0.08109498023986816
aF0.1483619213104248
aF0.04206705093383789
aF0.06156206130981445
aF0.11047196388244629
aF0.06572508811950684
aF0.10805487632751465
asVbecause
p7
(lp8
F0.1160588264465332
aF0.06637001037597656
aF0.1016240119934082
aF0.1560971736907959
aF0.023909807205200195
aF0.053002119064331055
asVprogramming
p9
(lp10
F0.06991100311279297
aF0.09011387825012207
aF0.07597208023071289
aF0.13593006134033203
aF0.048703908920288086
aF0.10427689552307129
aF0.13602900505065918
aF0.15223217010498047
aF0.0817418098449707
aF0.0357670783996582
asValmost
p11
(lp12
F0.16794395446777344
aF0.1080319881439209
aF0.1250619888305664
aF0.0859520435333252
aF0.06857991218566895
asVhouse
p13
(lp14
F0.09149599075317383
aF0.10590505599975586
aF0.09360790252685547
aF0.05905008316040039
asVis
p15
(lp16
F0.05812788009643555
asVrecommendation
p17
(lp18
F0.08189821243286133
aF0.15730786323547363
aF0.054982900619506836
aF0.09068703651428223
aF0.11236405372619629
aF0.13004398345947266
aF0.07104802131652832
aF0.09570503234863281
aF0.09222698211669922
aF0.11118292808532715
aF0.07799816131591797
aF0.11192893981933594
aF0.09293603897094727
asVfew
p19
(lp20
F0.08235502243041992
aF0.05068087577819824
asVrelated
p21
(lp22
F0.06756901741027832
aF0.0677480697631836
aF0.08236193656921387
aF0.07744002342224121
aF0.08191895484924316
aF0.1386890411376953
asVan
p23
(lp24
F0.16174602508544922
asVpast
p25
(lp26
F0.07411885261535645
aF0.032647132873535156
aF0.08369994163513184
asVborn
p27
(lp28
F0.04192090034484863
aF0.14907217025756836
aF0.09995698928833008
asVas
p29
(lp30
F0.0785820484161377
asViunbto
p31
(lp32
F0.009968042373657227
aF0.07454109191894531
aF0.011864900588989258
aF0.06580710411071777
aF0.07500290870666504
asVim
p33
(lp34
F0.7670249938964844
asVprogrammar
p35
(lp36
F0.07024621963500977
aF0.08670496940612793
aF0.06996583938598633
aF0.14636015892028809
aF0.07302093505859375
aF0.11476802825927734
aF0.1403510570526123
aF0.02219986915588379
aF0.09546613693237305
asVwant
p37
(lp38
F0.08899688720703125
aF0.09603404998779297
aF0.08607292175292969
asVin
p39
(lp40
F0.08580899238586426
asVprogrammer
p41
(lp42
F0.07190513610839844
aF0.10778403282165527
aF0.3316769599914551
aF0.14550399780273438
aF0.06084299087524414
aF0.0686500072479248
aF0.13213586807250977
aF0.08193707466125488
aF0.07348990440368652
asVmilk
p43
(lp44
F0.12401509284973145
aF0.09758400917053223
aF0.18273377418518066
asVshaurya
p45
(lp46
F0.11179494857788086
aF0.06787896156311035
aF0.13402795791625977
aF0.053141117095947266
aF0.1421799659729004
aF0.05012083053588867
asVmight
p47
(lp48
F0.10681414604187012
aF0.07789182662963867
aF0.08992910385131836
aF0.07766604423522949
asVbelieve
p49
(lp50
F0.1403648853302002
aF0.07296419143676758
aF0.05806088447570801
aF0.05296015739440918
aF0.13367581367492676
aF0.07031702995300293
asVtita
p51
(lp52
F0.03893280029296875
aF0.13120198249816895
aF0.06594514846801758
asVher
p53
(lp54
F0.06105399131774902
aF0.058886051177978516
asVto
p55
(lp56
F0.02877497673034668
asVliterally
p57
(lp58
F0.06418991088867188
aF0.06471800804138184
aF0.11492705345153809
aF0.10310983657836914
aF0.08018016815185547
aF0.07684683799743652
aF0.17344403266906738
aF0.09281206130981445
asVkitchen,
p59
(lp60
F0.1620490550994873
aF0.07092595100402832
aF0.18569707870483398
aF0.06337785720825195
aF0.11463117599487305
aF0.06936287879943848
aF0.2002561092376709
asVavik
p61
(lp62
F0.10215401649475098
aF0.05189800262451172
aF0.15798592567443848
asVamidst
p63
(lp64
F0.19376182556152344
aF0.1881861686706543
aF0.11511993408203125
aF0.1740739345550537
aF0.09898710250854492
asVwriting
p65
(lp66
F0.06024599075317383
aF0.09496617317199707
aF0.08503985404968262
aF0.08201813697814941
aF0.08410787582397461
aF0.049323081970214844
asVwrite
p67
(lp68
F0.09143280982971191
aF0.2969090938568115
aF0.09287095069885254
aF0.06666302680969238
asVflood
p69
(lp70
F0.06262397766113281
aF0.17331504821777344
aF0.14505290985107422
aF0.08299517631530762
asVtears
p71
(lp72
F0.13970685005187988
aF0.10810399055480957
aF0.1299610137939453
aF0.1132049560546875
asVunable
p73
(lp74
F0.17753195762634277
aF0.045842885971069336
aF0.1668710708618164
aF0.1153111457824707
aF0.09994077682495117
asVweeping
p75
(lp76
F0.0560300350189209
aF0.13513493537902832
aF0.11987519264221191
aF0.10020995140075684
aF0.08739185333251953
aF0.0653831958770752
asVrecommend
p77
(lp78
F0.07513904571533203
aF0.14982199668884277
aF0.07203793525695801
aF0.07997393608093262
aF0.1450061798095703
aF0.10908198356628418
aF0.10887694358825684
aF0.05065488815307617
asVmama
p79
(lp80
F0.04006505012512207
aF0.1340010166168213
aF0.055850982666015625
asVyou
p81
(lp82
F0.11801385879516602
aF0.10604119300842285
asVinduced
p83
(lp84
F0.06331110000610352
aF0.09717392921447754
aF0.13200902938842773
aF0.0880730152130127
aF0.8919620513916016
aF0.18982911109924316
asVworked
p85
(lp86
F0.041986942291259766
aF0.15064120292663574
aF0.01305699348449707
aF0.13849186897277832
aF0.1529369354248047
asVworld,
p87
(lp88
F0.055738210678100586
aF0.06734681129455566
aF0.12355208396911621
aF0.06849098205566406
aF0.15886592864990234
asVme
p89
(lp90
F0.05612683296203613
asVexcellent
p91
(lp92
F0.16347694396972656
aF0.6080939769744873
aF0.08150315284729004
aF0.11703991889953613
aF0.13188910484313965
aF0.09713602066040039
aF0.10001897811889648
aF0.0824129581451416
asVthat
p93
(lp94
F0.10499691963195801
aF0.09839606285095215
aF0.07304000854492188
asVany
p95
(lp96
F0.04871821403503418
aF0.18524789810180664
asVtita,
p97
(lp98
F0.07972502708435059
aF0.09703898429870605
aF0.08557605743408203
aF0.23618388175964355
asVquite
p99
(lp100
F0.11076498031616211
aF0.06490206718444824
aF0.06436800956726074
aF0.0749669075012207
asVemployee
p101
(lp102
F0.0849308967590332
aF0.08167004585266113
aF0.20695090293884277
aF0.19118809700012207
aF0.09015107154846191
aF0.21301484107971191
aF0.1389930248260498
asVproduce
p103
(lp104
F0.05167794227600098
aF0.12299704551696777
aF0.12505197525024414
aF0.1269059181213379
aF0.08033895492553711
aF0.07413816452026367
asVsuited
p105
(lp106
F0.1339578628540039
aF0.050965070724487305
aF0.1279139518737793
aF0.10818099975585938
aF0.15399909019470215
asVhands
p107
(lp108
F0.03376507759094238
aF0.15120291709899902
aF0.07407116889953613
aF0.07079291343688965
asVcook
p109
(lp110
F0.12384390830993652
aF0.14320707321166992
aF0.11168193817138672
asVimmediately
p111
(lp112
F0.11299896240234375
aF0.12972116470336914
aF0.1163628101348877
aF0.1826460361480713
aF0.11226916313171387
aF0.06604194641113281
aF0.09563207626342773
aF0.08016300201416016
aF0.11716890335083008
aF0.10198187828063965
asVelena
p113
(lp114
F0.09577417373657227
aF0.07272601127624512
aF0.144974946975708
aF0.10243105888366699
asVyears
p115
(lp116
F0.04998588562011719
aF0.31434202194213867
aF0.16999316215515137
aF0.041052818298339844
asVwith
p117
(lp118
F0.052960872650146484
aF0.12743616104125977
aF0.07744479179382324
asVhim
p119
(lp120
F0.08972716331481934
aF0.12299084663391113
asVhe
p121
(lp122
F0.06190896034240723
asVa
p123
(lp124
sVsrivastava
p125
(lp126
F0.14274811744689941
aF0.12589383125305176
aF0.17003917694091797
aF0.23937082290649414
aF0.2238471508026123
aF0.965796947479248
aF0.10701990127563477
aF0.6394011974334717
aF0.07823896408081055
asVhas
p127
(lp128
F0.017724037170410156
aF0.07329797744750977
asVoff
p129
(lp130
F0.09790301322937012
aF0.14133906364440918
asVfor
p131
(lp132
F0.0765531063079834
aF0.09238600730895996
asVonion
p133
(lp134
F0.08988094329833984
aF0.2063131332397461
aF0.15251588821411133
aF0.11326408386230469
asVmother's
p135
(lp136
F0.07207798957824707
aF0.12121796607971191
aF0.041815996170043945
aF0.11849808692932129
aF0.0714418888092041
aF0.15950918197631836
aF0.11162376403808594
asVthis
p137
(lp138
F0.06402897834777832
aF0.05195903778076172
aF0.0672600269317627
asVof
p139
(lp140
F0.01583719253540039
asVwell
p141
(lp142
F0.05301094055175781
aF0.049456119537353516
aF0.1218559741973877
asVsweeps
p143
(lp144
F0.17278003692626953
aF0.08508586883544922
aF0.1439070701599121
aF0.1192629337310791
aF0.09904694557189941
asVcring
p145
(lp146
F0.18611907958984375
aF0.12604284286499023
aF0.08287310600280762
aF0.12087202072143555
asVi
p147
(lp148
sVhi
p149
(lp150
F0.043608903884887695
asVshe
p151
(lp152
F0.12318587303161621
aF0.07793307304382324
asVmother
p153
(lp154
F0.07216382026672363
aF0.13502097129821777
aF0.020942211151123047
aF0.1302318572998047
aF0.08478593826293945
asVposition
p155
(lp156
F0.07306909561157227
aF0.05496692657470703
aF0.13399291038513184
aF0.08707213401794434
aF0.06686902046203613
aF0.08618998527526855
aF0.07798004150390625
asVthe
p157
(lp158
F0.07886385917663574
aF0.0525970458984375
asVprogramme
p159
(lp160
F0.09719395637512207
aF0.054801225662231445
aF0.1030278205871582
aF0.14608311653137207
aF0.06290483474731445
aF0.06493902206420898
aF0.12700104713439941
aF0.08230900764465332
asVexccellent
p161
(lp162
F0.15546607971191406
aF0.18384099006652832
aF0.13874101638793945
aF0.10899496078491211
aF0.36508893966674805
aF0.140977144241333
aF0.997999906539917
aF0.2413160800933838
aF0.07315587997436523
as.