(dp0
S''
p1
(lp2
sVand
p3
(lp4
F0.1727900505065918
aF0.05676102638244629
asVstrongly
p5
(lp6
F0.08622622489929199
aF0.1240530014038086
aF0.06253981590270996
aF0.09440112113952637
aF0.0897979736328125
aF0.06711292266845703
aF0.09378695487976074
asVwordld
p7
(lp8
F0.10834193229675293
aF0.09597206115722656
aF0.18292689323425293
aF0.6297030448913574
aF0.05412101745605469
asValmost
p9
(lp10
F0.10506010055541992
aF0.09503602981567383
aF0.13498497009277344
aF0.10773110389709473
aF0.08290386199951172
asVhouse
p11
(lp12
F0.09098196029663086
aF0.09623217582702637
aF0.06962394714355469
aF0.06454896926879883
asVinto
p13
(lp14
F0.07201600074768066
aF0.07035708427429199
aF0.0836479663848877
asVaimmedately
p15
(lp16
F0.1776421070098877
aF0.12906885147094727
aF0.13140511512756348
aF0.1625978946685791
aF0.17430710792541504
aF0.10918188095092773
aF0.11371111869812012
aF0.08313608169555664
aF0.13293886184692383
aF0.09794998168945312
asVcoding
p17
(lp18
F0.09300804138183594
aF0.08920907974243164
aF0.09244394302368164
aF0.07341694831848145
aF0.0668191909790039
asVrelated
p19
(lp20
F0.0620570182800293
aF0.039968013763427734
aF0.11309695243835449
aF0.06205105781555176
aF0.07459902763366699
aF0.14444994926452637
asVrew
p21
(lp22
F0.07960009574890137
aF0.7187800407409668
asVborn
p23
(lp24
F0.15852713584899902
aF0.07003283500671387
aF0.11153221130371094
asVas
p25
(lp26
F0.11062502861022949
asVin
p27
(lp28
F0.07899117469787598
asVprogrammer
p29
(lp30
F0.04700589179992676
aF0.11892509460449219
aF0.04541897773742676
aF0.13654208183288574
aF0.06407499313354492
aF0.06769299507141113
aF0.14223599433898926
aF0.0563509464263916
aF0.07985496520996094
asVid
p31
(lp32
F0.31125903129577637
asVshaurya
p33
(lp34
F0.06374692916870117
aF0.09597015380859375
aF0.16033577919006348
aF0.07872319221496582
aF0.13341689109802246
aF0.06860709190368652
asVtita
p35
(lp36
F0.1091160774230957
aF0.08225011825561523
aF0.356935977935791
asVfor
p37
(lp38
F0.08009219169616699
aF0.06295084953308105
asVliterally
p39
(lp40
F0.06709408760070801
aF0.04160189628601074
aF0.13085508346557617
aF0.10933089256286621
aF0.029159069061279297
aF0.10085797309875488
aF0.13998913764953613
aF0.10102581977844238
asVrecommendation
p41
(lp42
F0.07604312896728516
aF0.1478290557861328
aF0.025954008102416992
aF0.06643080711364746
aF0.115753173828125
aF0.11610794067382812
aF0.07088804244995117
aF0.07317185401916504
aF0.11896514892578125
aF0.0877690315246582
aF0.04288077354431152
aF0.09798312187194824
aF0.06929993629455566
asVavik
p43
(lp44
F0.12977910041809082
aF0.03432583808898926
aF0.1577301025390625
asVamidst
p45
(lp46
F0.13248014450073242
aF0.08663201332092285
aF0.1250138282775879
aF0.6171591281890869
aF0.08317899703979492
asVhim
p47
(lp48
F0.07291102409362793
aF0.09369301795959473
asVwrite
p49
(lp50
F0.0765678882598877
aF0.12430000305175781
aF0.06763291358947754
aF0.08123016357421875
asVto
p51
(lp52
F0.03727388381958008
asVkcook
p53
(lp54
F0.4451639652252197
aF0.07865500450134277
aF0.16609406471252441
aF0.3727529048919678
asVreo
p55
(lp56
F0.07546591758728027
aF0.11191606521606445
asVweeping
p57
(lp58
F0.08949494361877441
aF0.12767696380615234
aF0.08369112014770508
aF0.1330089569091797
aF0.08310699462890625
aF0.08259296417236328
asVsmilk
p59
(lp60
F0.5211930274963379
aF0.09751105308532715
aF0.11506795883178711
aF0.1263868808746338
asVemployee
p61
(lp62
F0.1637430191040039
aF0.06841802597045898
aF0.17552995681762695
aF0.18507885932922363
aF0.09792208671569824
aF0.09608006477355957
aF0.12992501258850098
asVhi
p63
(lp64
F0.08061599731445312
asVinduced
p65
(lp66
F0.07294297218322754
aF0.16457390785217285
aF0.13090801239013672
aF0.06090211868286133
aF0.0949869155883789
aF0.1560049057006836
asVis
p67
(lp68
F0.04197382926940918
asVshse
p69
(lp70
F0.10968399047851562
aF0.07119584083557129
aF0.09373211860656738
asVexcellent
p71
(lp72
F0.14847517013549805
aF0.11500000953674316
aF0.08975386619567871
aF0.11952495574951172
aF0.12961697578430176
aF0.03775620460510254
aF0.3013458251953125
aF0.09498906135559082
asVcrying
p73
(lp74
F0.18101191520690918
aF0.1066439151763916
aF0.13349199295043945
aF0.09891510009765625
aF0.09506392478942871
asVany
p75
(lp76
F0.050184011459350586
aF0.16392803192138672
asVrecommend
p77
(lp78
F0.07407784461975098
aF0.13213515281677246
aF0.06523394584655762
aF0.07088088989257812
aF0.11802315711975098
aF0.07857203483581543
aF0.08759379386901855
aF0.05380606651306152
asVquite
p79
(lp80
F0.08543992042541504
aF0.06178116798400879
aF0.08267593383789062
aF0.07714104652404785
asVprotagonist
p81
(lp82
F0.10088801383972168
aF0.10219383239746094
aF0.1078941822052002
aF0.1154778003692627
aF0.1592411994934082
aF0.09520483016967773
aF0.2036910057067871
aF0.14943504333496094
aF0.13197803497314453
aF0.10763788223266602
asVhands
p83
(lp84
F0.058238983154296875
aF0.14909696578979492
aF0.09360218048095703
aF0.06198883056640625
asVcook
p85
(lp86
F0.07192587852478027
aF0.12939715385437012
aF0.08552384376525879
asVcodingq
p87
(lp88
F0.13004708290100098
aF0.08338093757629395
aF0.7833571434020996
aF0.08620691299438477
aF0.03918004035949707
aF2.3936290740966797
asVan
p89
(lp90
F0.09549498558044434
asVyhaa
p91
(lp92
F0.006999015808105469
aF0.03113102912902832
aF0.2643399238586426
asVhe
p93
(lp94
F0.03897500038146973
asVa
p95
(lp96
sVoff
p97
(lp98
F0.06902098655700684
aF0.12492609024047852
asVlike
p99
(lp100
F0.050913095474243164
aF0.1432790756225586
aF0.05940079689025879
asVonion
p101
(lp102
F0.10159587860107422
aF0.08334994316101074
aF0.10461711883544922
aF0.0860600471496582
asVthis
p103
(lp104
F0.05307793617248535
aF0.045989036560058594
aF0.06595492362976074
asVprogramming
p105
(lp106
F0.04091691970825195
aF0.10672187805175781
aF0.06577301025390625
aF0.13338613510131836
aF0.07199287414550781
aF0.06518316268920898
aF0.13281798362731934
aF0.6260859966278076
aF0.07465887069702148
aF0.07708001136779785
asVsweeps
p107
(lp108
F0.14961504936218262
aF0.06841707229614258
aF0.1363999843597412
aF0.12281084060668945
aF0.08323812484741211
asVi
p109
(lp110
sVproduce
p111
(lp112
F0.09406304359436035
aF0.08999109268188477
aF0.1209268569946289
aF0.1466221809387207
aF0.10138487815856934
aF0.08991694450378418
asVposition
p113
(lp114
F0.08841896057128906
aF0.06589698791503906
aF0.12283992767333984
aF0.06500101089477539
aF0.0848381519317627
aF0.08240890502929688
aF0.06106996536254883
asVthe
p115
(lp116
F0.07393217086791992
aF0.058981895446777344
asVconsequently
p117
(lp118
F0.1819460391998291
aF0.08611607551574707
aF0.15126299858093262
aF0.10328292846679688
aF0.2283461093902588
aF0.2856130599975586
aF0.14438295364379883
aF0.11299395561218262
aF0.09966301918029785
aF0.138962984085083
aF0.12021899223327637
asVikitchen
p119
(lp120
F0.5002710819244385
aF0.14383387565612793
aF0.07087397575378418
aF0.1679999828338623
aF0.07702922821044922
aF0.12098884582519531
aF0.09405994415283203
as.